target datalayout = "e-m:e-p270:32:32-p271:32:32-p272:64:64-i64:64-i128:128-f80:128-n8:16:32:64-S128"
target triple = "x86_64-pc-linux-gnu"

%"class.std::set" = type { %"class.std::_Rb_tree" }
%"class.std::_Rb_tree" = type { %"struct.std::_Rb_tree<std::__cxx11::basic_string<char>, std::__cxx11::basic_string<char>, std::_Identity<std::__cxx11::basic_string<char>>, duckdb_re2::Prefilter::LengthThenLex>::_Rb_tree_impl" }
%"struct.std::_Rb_tree<std::__cxx11::basic_string<char>, std::__cxx11::basic_string<char>, std::_Identity<std::__cxx11::basic_string<char>>, duckdb_re2::Prefilter::LengthThenLex>::_Rb_tree_impl" = type { [8 x i8], %"struct.std::_Rb_tree_header" }
%"struct.std::_Rb_tree_header" = type { %"struct.std::_Rb_tree_node_base", i64 }
%"struct.std::_Rb_tree_node_base" = type { i32, ptr, ptr, ptr }
%"class.duckdb_re2::Prefilter::Info" = type { %"class.std::set", i8, ptr }

@_ZN10duckdb_re29PrefilterC1ENS0_2OpE = hidden unnamed_addr alias void (ptr, i32), ptr @_ZN10duckdb_re29PrefilterC2ENS0_2OpE
@_ZN10duckdb_re29Prefilter4InfoC1Ev = hidden unnamed_addr alias void (ptr), ptr @_ZN10duckdb_re29Prefilter4InfoC2Ev

; Function Attrs: mustprogress uwtable
define hidden noundef ptr @_ZN10duckdb_re29Prefilter4Info8AnyMatchEv() #0 align 2 personality ptr @__gxx_personality_v0 {
  %1 = alloca ptr, align 8
  %2 = alloca ptr, align 8
  %3 = alloca i32, align 4
  call void @llvm.lifetime.start.p0(i64 8, ptr %1) #18
  %4 = call noalias noundef nonnull ptr @_Znwm(i64 noundef 64) #19
  invoke void @_ZN10duckdb_re29Prefilter4InfoC1Ev(ptr noundef nonnull align 8 dereferenceable(64) %4)
          to label %5 unwind label %11

5:                                                ; preds = %0
  store ptr %4, ptr %1, align 8, !tbaa !45
  %6 = call noalias noundef nonnull ptr @_Znwm(i64 noundef 56) #19
  invoke void @_ZN10duckdb_re29PrefilterC1ENS0_2OpE(ptr noundef nonnull align 8 dereferenceable(52) %6, i32 noundef 0)
          to label %7 unwind label %15

7:                                                ; preds = %5
  %8 = load ptr, ptr %1, align 8, !tbaa !45
  %9 = getelementptr inbounds nuw %"class.duckdb_re2::Prefilter::Info", ptr %8, i32 0, i32 2
  store ptr %6, ptr %9, align 8, !tbaa !58
  %10 = load ptr, ptr %1, align 8, !tbaa !45
  call void @llvm.lifetime.end.p0(i64 8, ptr %1) #18
  ret ptr %10

11:                                               ; preds = %0
  %12 = landingpad { ptr, i32 }
          cleanup
  %13 = extractvalue { ptr, i32 } %12, 0
  store ptr %13, ptr %2, align 8
  %14 = extractvalue { ptr, i32 } %12, 1
  store i32 %14, ptr %3, align 4
  call void @_ZdlPv(ptr noundef %4) #21
  br label %19

15:                                               ; preds = %5
  %16 = landingpad { ptr, i32 }
          cleanup
  %17 = extractvalue { ptr, i32 } %16, 0
  store ptr %17, ptr %2, align 8
  %18 = extractvalue { ptr, i32 } %16, 1
  store i32 %18, ptr %3, align 4
  call void @_ZdlPv(ptr noundef %6) #21
  br label %19

19:                                               ; preds = %15, %11
  call void @llvm.lifetime.end.p0(i64 8, ptr %1) #18
  br label %20

20:                                               ; preds = %19
  %21 = load ptr, ptr %2, align 8
  %22 = load i32, ptr %3, align 4
  %23 = insertvalue { ptr, i32 } poison, ptr %21, 0
  %24 = insertvalue { ptr, i32 } %23, i32 %22, 1
  resume { ptr, i32 } %24
}

; Function Attrs: mustprogress uwtable
define hidden noundef ptr @_ZN10duckdb_re29Prefilter4Info6Walker10ShortVisitEPNS_6RegexpEPS1_(ptr noundef nonnull align 8 dereferenceable(97) %0, ptr noundef %1, ptr noundef %2) unnamed_addr #0 align 2 {
  %4 = alloca ptr, align 8
  %5 = alloca ptr, align 8
  %6 = alloca ptr, align 8
  store ptr %0, ptr %4, align 8, !tbaa !100
  store ptr %1, ptr %5, align 8, !tbaa !93
  store ptr %2, ptr %6, align 8, !tbaa !45
  %7 = call noundef ptr @_ZN10duckdb_re29Prefilter4Info8AnyMatchEv()
  ret ptr %7
}