; Function Attrs: mustprogress uwtable
define hidden noundef nonnull ptr @_ZN10duckdb_re29Prefilter4Info6Walker10ShortVisitEPNS_6RegexpEPS1_(ptr nonnull readnone align 8 captures(none) %0, ptr readnone captures(none) %1, ptr readnone captures(none) %2) unnamed_addr #0 align 2 personality ptr @__gxx_personality_v0 {
  %4 = tail call noalias noundef nonnull dereferenceable(64) ptr @_Znwm(i64 noundef 64) #20
  %5 = getelementptr inbounds nuw i8, ptr %4, i64 8
  store i32 0, ptr %5, align 8, !tbaa !40
  %6 = getelementptr inbounds nuw i8, ptr %4, i64 16
  store ptr null, ptr %6, align 8, !tbaa !41
  %7 = getelementptr inbounds nuw i8, ptr %4, i64 24
  store ptr %5, ptr %7, align 8, !tbaa !31
  %8 = getelementptr inbounds nuw i8, ptr %4, i64 32
  store ptr %5, ptr %8, align 8, !tbaa !42
  %9 = getelementptr inbounds nuw i8, ptr %4, i64 40
  store i64 0, ptr %9, align 8, !tbaa !36
  %10 = getelementptr inbounds nuw i8, ptr %4, i64 48
  store i8 0, ptr %10, align 8, !tbaa !43
  %11 = getelementptr inbounds nuw i8, ptr %4, i64 56
  store ptr null, ptr %11, align 8, !tbaa !51
  %12 = tail call noalias noundef nonnull dereferenceable(56) ptr @_Znwm(i64 noundef 56) #20
  %13 = getelementptr inbounds nuw i8, ptr %12, i64 16
  %14 = getelementptr inbounds nuw i8, ptr %12, i64 32
  store ptr %14, ptr %13, align 8, !tbaa !3
  %15 = getelementptr inbounds nuw i8, ptr %12, i64 24
  store i64 0, ptr %15, align 8, !tbaa !9
  store i8 0, ptr %14, align 1, !tbaa !12
  store i32 0, ptr %12, align 8, !tbaa !13
  %16 = getelementptr inbounds nuw i8, ptr %12, i64 8
  store ptr null, ptr %16, align 8, !tbaa !18
  store ptr %12, ptr %11, align 8, !tbaa !51
  ret ptr %4
}